target datalayout = "e-m:e-p270:32:32-p271:32:32-p272:64:64-i64:64-i128:128-f80:128-n8:16:32:64-S128"
target triple = "x86_64-pc-linux-gnu"

%struct.dh_st = type { i32, i32, %struct.ffc_params_st, i32, ptr, ptr, i32, ptr, %struct.CRYPTO_REF_COUNT, %struct.crypto_ex_data_st, ptr, ptr, ptr, ptr, i64 }
%struct.ffc_params_st = type { ptr, ptr, ptr, ptr, ptr, i64, i32, i32, i32, i32, i32, ptr, ptr, i32 }
%struct.CRYPTO_REF_COUNT = type { i32 }
%struct.crypto_ex_data_st = type { ptr, ptr }

; Function Attrs: nounwind uwtable
define internal i32 @dh_cb(i32 noundef %0, ptr noundef %1, ptr noundef %2, ptr noundef %3) #0 {
  %5 = alloca i32, align 4
  %6 = alloca i32, align 4
  %7 = alloca ptr, align 8
  %8 = alloca ptr, align 8
  %9 = alloca ptr, align 8
  %10 = alloca ptr, align 8
  store i32 %0, ptr %6, align 4, !tbaa !33
  store ptr %1, ptr %7, align 8, !tbaa !37
  store ptr %2, ptr %8, align 8, !tbaa !39
  store ptr %3, ptr %9, align 8, !tbaa !14
  %11 = load i32, ptr %6, align 4, !tbaa !33
  %12 = icmp eq i32 %11, 0
  br i1 %12, label %13, label %21

13:                                               ; preds = %4
  %14 = call ptr @DH_new()
  %15 = load ptr, ptr %7, align 8, !tbaa !37
  store ptr %14, ptr %15, align 8, !tbaa !41
  %16 = load ptr, ptr %7, align 8, !tbaa !37
  %17 = load ptr, ptr %16, align 8, !tbaa !41
  %18 = icmp ne ptr %17, null
  br i1 %18, label %19, label %20

19:                                               ; preds = %13
  store i32 2, ptr %5, align 4
  br label %44

20:                                               ; preds = %13
  store i32 0, ptr %5, align 4
  br label %44

21:                                               ; preds = %4
  %22 = load i32, ptr %6, align 4, !tbaa !33
  %23 = icmp eq i32 %22, 2
  br i1 %23, label %24, label %28

24:                                               ; preds = %21
  %25 = load ptr, ptr %7, align 8, !tbaa !37
  %26 = load ptr, ptr %25, align 8, !tbaa !41
  call void @DH_free(ptr noundef %26)
  %27 = load ptr, ptr %7, align 8, !tbaa !37
  store ptr null, ptr %27, align 8, !tbaa !41
  store i32 2, ptr %5, align 4
  br label %44

28:                                               ; preds = %21
  %29 = load i32, ptr %6, align 4, !tbaa !33
  %30 = icmp eq i32 %29, 5
  br i1 %30, label %31, label %41

31:                                               ; preds = %28
  call void @llvm.lifetime.start.p0(i64 8, ptr %10) #4
  %32 = load ptr, ptr %7, align 8, !tbaa !37
  %33 = load ptr, ptr %32, align 8, !tbaa !41
  store ptr %33, ptr %10, align 8, !tbaa !12
  %34 = load ptr, ptr %10, align 8, !tbaa !12
  call void @DH_clear_flags(ptr noundef %34, i32 noundef 61440)
  %35 = load ptr, ptr %10, align 8, !tbaa !12
  call void @DH_set_flags(ptr noundef %35, i32 noundef 0)
  %36 = load ptr, ptr %10, align 8, !tbaa !12
  call void @ossl_dh_cache_named_group(ptr noundef %36)
  %37 = load ptr, ptr %10, align 8, !tbaa !12
  %38 = getelementptr inbounds nuw %struct.dh_st, ptr %37, i32 0, i32 14
  %39 = load i64, ptr %38, align 8, !tbaa !43
  %40 = add i64 %39, 1
  store i64 %40, ptr %38, align 8, !tbaa !43
  call void @llvm.lifetime.end.p0(i64 8, ptr %10) #4
  br label %41

41:                                               ; preds = %31, %28
  br label %42

42:                                               ; preds = %41
  br label %43

43:                                               ; preds = %42
  store i32 1, ptr %5, align 4
  br label %44

44:                                               ; preds = %43, %24, %20, %19
  %45 = load i32, ptr %5, align 4
  ret i32 %45
}