; Function Attrs: nounwind uwtable
define internal range(i32 0, 3) i32 @dh_cb(i32 noundef %0, ptr noundef captures(none) %1, ptr readnone captures(none) %2, ptr readnone captures(none) %3) #1 {
  switch i32 %0, label %14 [
    i32 0, label %5
    i32 2, label %7
    i32 5, label %9
  ]

5:                                                ; preds = %4
  %6 = tail call ptr @DH_new() #5
  store ptr %6, ptr %1, align 8, !tbaa !30
  %.not = icmp eq ptr %6, null
  %. = select i1 %.not, i32 0, i32 2
  br label %14

7:                                                ; preds = %4
  %8 = load ptr, ptr %1, align 8, !tbaa !30
  tail call void @DH_free(ptr noundef %8) #5
  store ptr null, ptr %1, align 8, !tbaa !30
  br label %14

9:                                                ; preds = %4
  %10 = load ptr, ptr %1, align 8, !tbaa !30
  tail call void @DH_clear_flags(ptr noundef %10, i32 noundef 61440) #5
  tail call void @DH_set_flags(ptr noundef %10, i32 noundef 0) #5
  tail call void @ossl_dh_cache_named_group(ptr noundef %10) #5
  %11 = getelementptr inbounds nuw i8, ptr %10, i64 200
  %12 = load i64, ptr %11, align 8, !tbaa !32
  %13 = add i64 %12, 1
  store i64 %13, ptr %11, align 8, !tbaa !32
  br label %14

14:                                               ; preds = %9, %4, %5, %7
  %.0 = phi i32 [ 2, %7 ], [ %., %5 ], [ 1, %4 ], [ 1, %9 ]
  ret i32 %.0
}